; ModuleID = '22/840.c'
source_filename = "22/840.c"
target datalayout = "e-m:e-p270:32:32-p271:32:32-p272:64:64-i64:64-f80:128-n8:16:32:64-S128"
target triple = "x86_64-pc-linux-gnu"

@.str = private unnamed_addr constant [3 x i8] c"%d\00", align 1
@.str.1 = private unnamed_addr constant [3 x i8] c"%c\00", align 1
@.str.2 = private unnamed_addr constant [3 x i8] c"No\00", align 1
@.str.3 = private unnamed_addr constant [4 x i8] c"%d\0A\00", align 1

; Function Attrs: noinline nounwind uwtable
define dso_local void @main() #0 {
  %1 = alloca i32, align 4
  %2 = alloca i32, align 4
  %3 = alloca [300 x i32], align 16
  %4 = alloca i32, align 4
  %5 = alloca i32, align 4
  %6 = alloca [300 x i8], align 16
  store i32 0, i32* %4, align 4
  br label %7

7:                                                ; preds = %24, %0
  %8 = load i32, i32* %4, align 4
  %9 = sext i32 %8 to i64
  %10 = getelementptr inbounds [300 x i32], [300 x i32]* %3, i64 0, i64 %9
  %11 = call i32 (i8*, ...) @__isoc99_scanf(i8* getelementptr inbounds ([3 x i8], [3 x i8]* @.str, i64 0, i64 0), i32* %10)
  %12 = load i32, i32* %4, align 4
  %13 = sext i32 %12 to i64
  %14 = getelementptr inbounds [300 x i8], [300 x i8]* %6, i64 0, i64 %13
  %15 = call i32 (i8*, ...) @__isoc99_scanf(i8* getelementptr inbounds ([3 x i8], [3 x i8]* @.str.1, i64 0, i64 0), i8* %14)
  %16 = load i32, i32* %4, align 4
  %17 = sext i32 %16 to i64
  %18 = getelementptr inbounds [300 x i8], [300 x i8]* %6, i64 0, i64 %17
  %19 = load i8, i8* %18, align 1
  %20 = sext i8 %19 to i32
  %21 = icmp ne i32 %20, 44
  br i1 %21, label %22, label %23

22:                                               ; preds = %7
  br label %27

23:                                               ; preds = %7
  br label %24

24:                                               ; preds = %23
  %25 = load i32, i32* %4, align 4
  %26 = add nsw i32 %25, 1
  store i32 %26, i32* %4, align 4
  br label %7

27:                                               ; preds = %22
  %28 = load i32, i32* %4, align 4
  %29 = icmp eq i32 %28, 0
  br i1 %29, label %30, label %32

30:                                               ; preds = %27
  %31 = call i32 (i8*, ...) @printf(i8* getelementptr inbounds ([3 x i8], [3 x i8]* @.str.2, i64 0, i64 0))
  br label %120

32:                                               ; preds = %27
  %33 = getelementptr inbounds [300 x i32], [300 x i32]* %3, i64 0, i64 0
  %34 = load i32, i32* %33, align 16
  %35 = getelementptr inbounds [300 x i32], [300 x i32]* %3, i64 0, i64 1
  %36 = load i32, i32* %35, align 4
  %37 = icmp sge i32 %34, %36
  br i1 %37, label %38, label %43

38:                                               ; preds = %32
  %39 = getelementptr inbounds [300 x i32], [300 x i32]* %3, i64 0, i64 0
  %40 = load i32, i32* %39, align 16
  store i32 %40, i32* %1, align 4
  %41 = getelementptr inbounds [300 x i32], [300 x i32]* %3, i64 0, i64 1
  %42 = load i32, i32* %41, align 4
  store i32 %42, i32* %2, align 4
  br label %48

43:                                               ; preds = %32
  %44 = getelementptr inbounds [300 x i32], [300 x i32]* %3, i64 0, i64 1
  %45 = load i32, i32* %44, align 4
  store i32 %45, i32* %1, align 4
  %46 = getelementptr inbounds [300 x i32], [300 x i32]* %3, i64 0, i64 0
  %47 = load i32, i32* %46, align 16
  store i32 %47, i32* %2, align 4
  br label %48

48:                                               ; preds = %43, %38
  %49 = load i32, i32* %4, align 4
  %50 = icmp sge i32 %49, 2
  br i1 %50, label %51, label %110

51:                                               ; preds = %48
  store i32 2, i32* %5, align 4
  br label %52

52:                                               ; preds = %106, %51
  %53 = load i32, i32* %5, align 4
  %54 = load i32, i32* %4, align 4
  %55 = icmp sle i32 %53, %54
  br i1 %55, label %56, label %109

56:                                               ; preds = %52
  %57 = load i32, i32* %5, align 4
  %58 = sext i32 %57 to i64
  %59 = getelementptr inbounds [300 x i32], [300 x i32]* %3, i64 0, i64 %58
  %60 = load i32, i32* %59, align 4
  %61 = load i32, i32* %1, align 4
  %62 = icmp sgt i32 %60, %61
  br i1 %62, label %63, label %69

63:                                               ; preds = %56
  %64 = load i32, i32* %1, align 4
  store i32 %64, i32* %2, align 4
  %65 = load i32, i32* %5, align 4
  %66 = sext i32 %65 to i64
  %67 = getelementptr inbounds [300 x i32], [300 x i32]* %3, i64 0, i64 %66
  %68 = load i32, i32* %67, align 4
  store i32 %68, i32* %1, align 4
  br label %105

69:                                               ; preds = %56
  %70 = load i32, i32* %5, align 4
  %71 = sext i32 %70 to i64
  %72 = getelementptr inbounds [300 x i32], [300 x i32]* %3, i64 0, i64 %71
  %73 = load i32, i32* %72, align 4
  %74 = load i32, i32* %2, align 4
  %75 = icmp sgt i32 %73, %74
  br i1 %75, label %76, label %88

76:                                               ; preds = %69
  %77 = load i32, i32* %5, align 4
  %78 = sext i32 %77 to i64
  %79 = getelementptr inbounds [300 x i32], [300 x i32]* %3, i64 0, i64 %78
  %80 = load i32, i32* %79, align 4
  %81 = load i32, i32* %1, align 4
  %82 = icmp slt i32 %80, %81
  br i1 %82, label %83, label %88

83:                                               ; preds = %76
  %84 = load i32, i32* %5, align 4
  %85 = sext i32 %84 to i64
  %86 = getelementptr inbounds [300 x i32], [300 x i32]* %3, i64 0, i64 %85
  %87 = load i32, i32* %86, align 4
  store i32 %87, i32* %2, align 4
  br label %88

88:                                               ; preds = %83, %76, %69
  %89 = load i32, i32* %5, align 4
  %90 = sext i32 %89 to i64
  %91 = getelementptr inbounds [300 x i32], [300 x i32]* %3, i64 0, i64 %90
  %92 = load i32, i32* %91, align 4
  %93 = load i32, i32* %2, align 4
  %94 = icmp slt i32 %92, %93
  br i1 %94, label %95, label %104

95:                                               ; preds = %88
  %96 = load i32, i32* %2, align 4
  %97 = load i32, i32* %1, align 4
  %98 = icmp eq i32 %96, %97
  br i1 %98, label %99, label %104

99:                                               ; preds = %95
  %100 = load i32, i32* %5, align 4
  %101 = sext i32 %100 to i64
  %102 = getelementptr inbounds [300 x i32], [300 x i32]* %3, i64 0, i64 %101
  %103 = load i32, i32* %102, align 4
  store i32 %103, i32* %2, align 4
  br label %104

104:                                              ; preds = %99, %95, %88
  br label %105

105:                                              ; preds = %104, %63
  br label %106

106:                                              ; preds = %105
  %107 = load i32, i32* %5, align 4
  %108 = add nsw i32 %107, 1
  store i32 %108, i32* %5, align 4
  br label %52

109:                                              ; preds = %52
  br label %110

110:                                              ; preds = %109, %48
  %111 = load i32, i32* %1, align 4
  %112 = load i32, i32* %2, align 4
  %113 = icmp eq i32 %111, %112
  br i1 %113, label %114, label %116

114:                                              ; preds = %110
  %115 = call i32 (i8*, ...) @printf(i8* getelementptr inbounds ([3 x i8], [3 x i8]* @.str.2, i64 0, i64 0))
  br label %119

116:                                              ; preds = %110
  %117 = load i32, i32* %2, align 4
  %118 = call i32 (i8*, ...) @printf(i8* getelementptr inbounds ([4 x i8], [4 x i8]* @.str.3, i64 0, i64 0), i32 %117)
  br label %119

119:                                              ; preds = %116, %114
  br label %120

120:                                              ; preds = %119, %30
  ret void
}

declare dso_local i32 @__isoc99_scanf(i8*, ...) #1

declare dso_local i32 @printf(i8*, ...) #1


!llvm.module.flags = !{!0}
!llvm.ident = !{!1}

!0 = !{i32 1, !"wchar_size", i32 4}
!1 = !{!"clang version 10.0.0-4ubuntu1 "}
